target datalayout = "e-m:e-p270:32:32-p271:32:32-p272:64:64-i64:64-i128:128-f80:128-n8:16:32:64-S128"
target triple = "x86_64-pc-linux-gnu"

%struct.ossl_passphrase_data_st = type { i32, %union.anon, i8, ptr, i64 }
%union.anon = type { %struct.anon }
%struct.anon = type { ptr, i64 }
%struct.ossl_store_ctx_st = type { ptr, ptr, ptr, ptr, ptr, i32, ptr, i32, i32, ptr, %struct.ossl_passphrase_data_st }
%struct.ossl_store_loader_st = type { ptr, ptr, ptr, ptr, ptr, ptr, ptr, ptr, ptr, ptr, ptr, ptr, ptr, i32, ptr, ptr, %struct.CRYPTO_REF_COUNT, ptr, ptr, ptr, ptr, ptr, ptr, ptr, ptr, ptr, ptr }
%struct.CRYPTO_REF_COUNT = type { i32 }
%struct.ossl_store_search_st = type { i32, ptr, ptr, ptr, ptr, i64 }

@.str.2 = private unnamed_addr constant [36 x i8] c"../openssl/crypto/store/store_lib.c\00", align 1
@__func__.OSSL_STORE_find = private unnamed_addr constant [16 x i8] c"OSSL_STORE_find\00", align 1
@.str.5 = private unnamed_addr constant [8 x i8] c"subject\00", align 1
@.str.6 = private unnamed_addr constant [5 x i8] c"name\00", align 1
@.str.7 = private unnamed_addr constant [7 x i8] c"serial\00", align 1
@.str.8 = private unnamed_addr constant [7 x i8] c"digest\00", align 1
@.str.9 = private unnamed_addr constant [12 x i8] c"fingerprint\00", align 1
@.str.10 = private unnamed_addr constant [6 x i8] c"alias\00", align 1

; Function Attrs: nounwind uwtable
define i32 @OSSL_STORE_find(ptr noundef %0, ptr noundef %1) #0 {
  %3 = alloca i32, align 4
  %4 = alloca ptr, align 8
  %5 = alloca ptr, align 8
  %6 = alloca i32, align 4
  %7 = alloca i32, align 4
  %8 = alloca ptr, align 8
  %9 = alloca ptr, align 8
  %10 = alloca ptr, align 8
  %11 = alloca i32, align 4
  %12 = alloca ptr, align 8
  store ptr %0, ptr %4, align 8, !tbaa !19
  store ptr %1, ptr %5, align 8, !tbaa !60
  call void @llvm.lifetime.start.p0(i64 4, ptr %6) #8
  store i32 1, ptr %6, align 4, !tbaa !21
  %13 = load ptr, ptr %4, align 8, !tbaa !19
  %14 = getelementptr inbounds nuw %struct.ossl_store_ctx_st, ptr %13, i32 0, i32 7
  %15 = load i32, ptr %14, align 8, !tbaa !57
  %16 = icmp ne i32 %15, 0
  br i1 %16, label %17, label %18

17:                                               ; preds = %2
  call void @ERR_new()
  call void @ERR_set_debug(ptr noundef @.str.2, i32 noundef 330, ptr noundef @__func__.OSSL_STORE_find)
  call void (i32, i32, ptr, ...) @ERR_set_error(i32 noundef 44, i32 noundef 117, ptr noundef null)
  store i32 0, ptr %3, align 4
  store i32 1, ptr %7, align 4
  br label %161

18:                                               ; preds = %2
  %19 = load ptr, ptr %5, align 8, !tbaa !60
  %20 = icmp eq ptr %19, null
  br i1 %20, label %21, label %22

21:                                               ; preds = %18
  call void @ERR_new()
  call void @ERR_set_debug(ptr noundef @.str.2, i32 noundef 334, ptr noundef @__func__.OSSL_STORE_find)
  call void (i32, i32, ptr, ...) @ERR_set_error(i32 noundef 44, i32 noundef 786690, ptr noundef null)
  store i32 0, ptr %3, align 4
  store i32 1, ptr %7, align 4
  br label %161

22:                                               ; preds = %18
  %23 = load ptr, ptr %4, align 8, !tbaa !19
  %24 = getelementptr inbounds nuw %struct.ossl_store_ctx_st, ptr %23, i32 0, i32 1
  %25 = load ptr, ptr %24, align 8, !tbaa !42
  %26 = icmp ne ptr %25, null
  br i1 %26, label %27, label %140

27:                                               ; preds = %22
  call void @llvm.lifetime.start.p0(i64 8, ptr %8) #8
  call void @llvm.lifetime.start.p0(i64 8, ptr %9) #8
  call void @llvm.lifetime.start.p0(i64 8, ptr %10) #8
  store ptr null, ptr %10, align 8, !tbaa !12
  call void @llvm.lifetime.start.p0(i64 4, ptr %11) #8
  call void @llvm.lifetime.start.p0(i64 8, ptr %12) #8
  store ptr null, ptr %12, align 8, !tbaa !62
  %28 = load ptr, ptr %4, align 8, !tbaa !19
  %29 = getelementptr inbounds nuw %struct.ossl_store_ctx_st, ptr %28, i32 0, i32 1
  %30 = load ptr, ptr %29, align 8, !tbaa !42
  %31 = getelementptr inbounds nuw %struct.ossl_store_loader_st, ptr %30, i32 0, i32 20
  %32 = load ptr, ptr %31, align 8, !tbaa !48
  %33 = icmp eq ptr %32, null
  br i1 %33, label %34, label %35

34:                                               ; preds = %27
  call void @ERR_new()
  call void @ERR_set_debug(ptr noundef @.str.2, i32 noundef 348, ptr noundef @__func__.OSSL_STORE_find)
  call void (i32, i32, ptr, ...) @ERR_set_error(i32 noundef 44, i32 noundef 118, ptr noundef null)
  store i32 0, ptr %3, align 4
  store i32 1, ptr %7, align 4
  br label %137

35:                                               ; preds = %27
  %36 = call ptr @OSSL_PARAM_BLD_new()
  store ptr %36, ptr %8, align 8, !tbaa !64
  %37 = icmp eq ptr %36, null
  br i1 %37, label %38, label %39

38:                                               ; preds = %35
  call void @ERR_new()
  call void @ERR_set_debug(ptr noundef @.str.2, i32 noundef 353, ptr noundef @__func__.OSSL_STORE_find)
  call void (i32, i32, ptr, ...) @ERR_set_error(i32 noundef 44, i32 noundef 524303, ptr noundef null)
  store i32 0, ptr %3, align 4
  store i32 1, ptr %7, align 4
  br label %137

39:                                               ; preds = %35
  store i32 0, ptr %6, align 4, !tbaa !21
  %40 = load ptr, ptr %5, align 8, !tbaa !60
  %41 = getelementptr inbounds nuw %struct.ossl_store_search_st, ptr %40, i32 0, i32 0
  %42 = load i32, ptr %41, align 8, !tbaa !66
  switch i32 %42, label %116 [
    i32 1, label %43
    i32 2, label %58
    i32 3, label %84
    i32 4, label %104
  ]

43:                                               ; preds = %39
  %44 = load ptr, ptr %5, align 8, !tbaa !60
  %45 = getelementptr inbounds nuw %struct.ossl_store_search_st, ptr %44, i32 0, i32 1
  %46 = load ptr, ptr %45, align 8, !tbaa !71
  %47 = call i32 @i2d_X509_NAME(ptr noundef %46, ptr noundef %10)
  store i32 %47, ptr %11, align 4, !tbaa !21
  %48 = icmp sgt i32 %47, 0
  br i1 %48, label %49, label %57

49:                                               ; preds = %43
  %50 = load ptr, ptr %8, align 8, !tbaa !64
  %51 = load ptr, ptr %10, align 8, !tbaa !12
  %52 = load i32, ptr %11, align 4, !tbaa !21
  %53 = sext i32 %52 to i64
  %54 = call i32 @OSSL_PARAM_BLD_push_octet_string(ptr noundef %50, ptr noundef @.str.5, ptr noundef %51, i64 noundef %53)
  %55 = icmp ne i32 %54, 0
  br i1 %55, label %56, label %57

56:                                               ; preds = %49
  store i32 1, ptr %6, align 4, !tbaa !21
  br label %57

57:                                               ; preds = %56, %49, %43
  br label %116

58:                                               ; preds = %39
  %59 = load ptr, ptr %5, align 8, !tbaa !60
  %60 = getelementptr inbounds nuw %struct.ossl_store_search_st, ptr %59, i32 0, i32 1
  %61 = load ptr, ptr %60, align 8, !tbaa !71
  %62 = call i32 @i2d_X509_NAME(ptr noundef %61, ptr noundef %10)
  store i32 %62, ptr %11, align 4, !tbaa !21
  %63 = icmp sgt i32 %62, 0
  br i1 %63, label %64, label %83

64:                                               ; preds = %58
  %65 = load ptr, ptr %5, align 8, !tbaa !60
  %66 = getelementptr inbounds nuw %struct.ossl_store_search_st, ptr %65, i32 0, i32 2
  %67 = load ptr, ptr %66, align 8, !tbaa !72
  %68 = call ptr @ASN1_INTEGER_to_BN(ptr noundef %67, ptr noundef null)
  store ptr %68, ptr %12, align 8, !tbaa !62
  %69 = icmp ne ptr %68, null
  br i1 %69, label %70, label %83

70:                                               ; preds = %64
  %71 = load ptr, ptr %8, align 8, !tbaa !64
  %72 = load ptr, ptr %10, align 8, !tbaa !12
  %73 = load i32, ptr %11, align 4, !tbaa !21
  %74 = sext i32 %73 to i64
  %75 = call i32 @OSSL_PARAM_BLD_push_octet_string(ptr noundef %71, ptr noundef @.str.6, ptr noundef %72, i64 noundef %74)
  %76 = icmp ne i32 %75, 0
  br i1 %76, label %77, label %83

77:                                               ; preds = %70
  %78 = load ptr, ptr %8, align 8, !tbaa !64
  %79 = load ptr, ptr %12, align 8, !tbaa !62
  %80 = call i32 @OSSL_PARAM_BLD_push_BN(ptr noundef %78, ptr noundef @.str.7, ptr noundef %79)
  %81 = icmp ne i32 %80, 0
  br i1 %81, label %82, label %83

82:                                               ; preds = %77
  store i32 1, ptr %6, align 4, !tbaa !21
  br label %83

83:                                               ; preds = %82, %77, %70, %64, %58
  br label %116

84:                                               ; preds = %39
  %85 = load ptr, ptr %8, align 8, !tbaa !64
  %86 = load ptr, ptr %5, align 8, !tbaa !60
  %87 = getelementptr inbounds nuw %struct.ossl_store_search_st, ptr %86, i32 0, i32 3
  %88 = load ptr, ptr %87, align 8, !tbaa !73
  %89 = call ptr @EVP_MD_get0_name(ptr noundef %88)
  %90 = call i32 @OSSL_PARAM_BLD_push_utf8_string(ptr noundef %85, ptr noundef @.str.8, ptr noundef %89, i64 noundef 0)
  %91 = icmp ne i32 %90, 0
  br i1 %91, label %92, label %103

92:                                               ; preds = %84
  %93 = load ptr, ptr %8, align 8, !tbaa !64
  %94 = load ptr, ptr %5, align 8, !tbaa !60
  %95 = getelementptr inbounds nuw %struct.ossl_store_search_st, ptr %94, i32 0, i32 4
  %96 = load ptr, ptr %95, align 8, !tbaa !74
  %97 = load ptr, ptr %5, align 8, !tbaa !60
  %98 = getelementptr inbounds nuw %struct.ossl_store_search_st, ptr %97, i32 0, i32 5
  %99 = load i64, ptr %98, align 8, !tbaa !75
  %100 = call i32 @OSSL_PARAM_BLD_push_octet_string(ptr noundef %93, ptr noundef @.str.9, ptr noundef %96, i64 noundef %99)
  %101 = icmp ne i32 %100, 0
  br i1 %101, label %102, label %103

102:                                              ; preds = %92
  store i32 1, ptr %6, align 4, !tbaa !21
  br label %103

103:                                              ; preds = %102, %92, %84
  br label %116

104:                                              ; preds = %39
  %105 = load ptr, ptr %8, align 8, !tbaa !64
  %106 = load ptr, ptr %5, align 8, !tbaa !60
  %107 = getelementptr inbounds nuw %struct.ossl_store_search_st, ptr %106, i32 0, i32 4
  %108 = load ptr, ptr %107, align 8, !tbaa !74
  %109 = load ptr, ptr %5, align 8, !tbaa !60
  %110 = getelementptr inbounds nuw %struct.ossl_store_search_st, ptr %109, i32 0, i32 5
  %111 = load i64, ptr %110, align 8, !tbaa !75
  %112 = call i32 @OSSL_PARAM_BLD_push_utf8_string(ptr noundef %105, ptr noundef @.str.10, ptr noundef %108, i64 noundef %111)
  %113 = icmp ne i32 %112, 0
  br i1 %113, label %114, label %115

114:                                              ; preds = %104
  store i32 1, ptr %6, align 4, !tbaa !21
  br label %115

115:                                              ; preds = %114, %104
  br label %116

116:                                              ; preds = %39, %115, %103, %83, %57
  %117 = load i32, ptr %6, align 4, !tbaa !21
  %118 = icmp ne i32 %117, 0
  br i1 %118, label %119, label %133

119:                                              ; preds = %116
  %120 = load ptr, ptr %8, align 8, !tbaa !64
  %121 = call ptr @OSSL_PARAM_BLD_to_param(ptr noundef %120)
  store ptr %121, ptr %9, align 8, !tbaa !13
  %122 = load ptr, ptr %4, align 8, !tbaa !19
  %123 = getelementptr inbounds nuw %struct.ossl_store_ctx_st, ptr %122, i32 0, i32 1
  %124 = load ptr, ptr %123, align 8, !tbaa !42
  %125 = getelementptr inbounds nuw %struct.ossl_store_loader_st, ptr %124, i32 0, i32 20
  %126 = load ptr, ptr %125, align 8, !tbaa !48
  %127 = load ptr, ptr %4, align 8, !tbaa !19
  %128 = getelementptr inbounds nuw %struct.ossl_store_ctx_st, ptr %127, i32 0, i32 2
  %129 = load ptr, ptr %128, align 8, !tbaa !44
  %130 = load ptr, ptr %9, align 8, !tbaa !13
  %131 = call i32 %126(ptr noundef %129, ptr noundef %130)
  store i32 %131, ptr %6, align 4, !tbaa !21
  %132 = load ptr, ptr %9, align 8, !tbaa !13
  call void @OSSL_PARAM_free(ptr noundef %132)
  br label %133

133:                                              ; preds = %119, %116
  %134 = load ptr, ptr %8, align 8, !tbaa !64
  call void @OSSL_PARAM_BLD_free(ptr noundef %134)
  %135 = load ptr, ptr %10, align 8, !tbaa !12
  call void @CRYPTO_free(ptr noundef %135, ptr noundef @.str.2, i32 noundef 403)
  %136 = load ptr, ptr %12, align 8, !tbaa !62
  call void @BN_free(ptr noundef %136)
  store i32 0, ptr %7, align 4
  br label %137

137:                                              ; preds = %133, %38, %34
  call void @llvm.lifetime.end.p0(i64 8, ptr %12) #8
  call void @llvm.lifetime.end.p0(i64 4, ptr %11) #8
  call void @llvm.lifetime.end.p0(i64 8, ptr %10) #8
  call void @llvm.lifetime.end.p0(i64 8, ptr %9) #8
  call void @llvm.lifetime.end.p0(i64 8, ptr %8) #8
  %138 = load i32, ptr %7, align 4
  switch i32 %138, label %161 [
    i32 0, label %139
  ]

139:                                              ; preds = %137
  br label %159

140:                                              ; preds = %22
  %141 = load ptr, ptr %4, align 8, !tbaa !19
  %142 = getelementptr inbounds nuw %struct.ossl_store_ctx_st, ptr %141, i32 0, i32 0
  %143 = load ptr, ptr %142, align 8, !tbaa !43
  %144 = getelementptr inbounds nuw %struct.ossl_store_loader_st, ptr %143, i32 0, i32 6
  %145 = load ptr, ptr %144, align 8, !tbaa !76
  %146 = icmp eq ptr %145, null
  br i1 %146, label %147, label %148

147:                                              ; preds = %140
  call void @ERR_new()
  call void @ERR_set_debug(ptr noundef @.str.2, i32 noundef 409, ptr noundef @__func__.OSSL_STORE_find)
  call void (i32, i32, ptr, ...) @ERR_set_error(i32 noundef 44, i32 noundef 118, ptr noundef null)
  store i32 0, ptr %3, align 4
  store i32 1, ptr %7, align 4
  br label %161

148:                                              ; preds = %140
  %149 = load ptr, ptr %4, align 8, !tbaa !19
  %150 = getelementptr inbounds nuw %struct.ossl_store_ctx_st, ptr %149, i32 0, i32 0
  %151 = load ptr, ptr %150, align 8, !tbaa !43
  %152 = getelementptr inbounds nuw %struct.ossl_store_loader_st, ptr %151, i32 0, i32 6
  %153 = load ptr, ptr %152, align 8, !tbaa !76
  %154 = load ptr, ptr %4, align 8, !tbaa !19
  %155 = getelementptr inbounds nuw %struct.ossl_store_ctx_st, ptr %154, i32 0, i32 2
  %156 = load ptr, ptr %155, align 8, !tbaa !44
  %157 = load ptr, ptr %5, align 8, !tbaa !60
  %158 = call i32 %153(ptr noundef %156, ptr noundef %157)
  store i32 %158, ptr %6, align 4, !tbaa !21
  br label %159

159:                                              ; preds = %148, %139
  %160 = load i32, ptr %6, align 4, !tbaa !21
  store i32 %160, ptr %3, align 4
  store i32 1, ptr %7, align 4
  br label %161

161:                                              ; preds = %159, %147, %137, %21, %17
  call void @llvm.lifetime.end.p0(i64 4, ptr %6) #8
  %162 = load i32, ptr %3, align 4
  ret i32 %162
}