; Function Attrs: nounwind uwtable
define i32 @OSSL_STORE_find(ptr noundef readonly captures(none) %0, ptr noundef %1) local_unnamed_addr #0 {
  %3 = alloca ptr, align 8
  %4 = getelementptr inbounds nuw i8, ptr %0, i64 56
  %5 = load i32, ptr %4, align 8, !tbaa !44
  %.not = icmp eq i32 %5, 0
  br i1 %.not, label %7, label %6

6:                                                ; preds = %2
  tail call void @ERR_new() #9
  tail call void @ERR_set_debug(ptr noundef nonnull @.str.2, i32 noundef 330, ptr noundef nonnull @__func__.OSSL_STORE_find) #9
  tail call void (i32, i32, ptr, ...) @ERR_set_error(i32 noundef 44, i32 noundef 117, ptr noundef null) #9
  br label %82

7:                                                ; preds = %2
  %8 = icmp eq ptr %1, null
  br i1 %8, label %9, label %10

9:                                                ; preds = %7
  tail call void @ERR_new() #9
  tail call void @ERR_set_debug(ptr noundef nonnull @.str.2, i32 noundef 334, ptr noundef nonnull @__func__.OSSL_STORE_find) #9
  tail call void (i32, i32, ptr, ...) @ERR_set_error(i32 noundef 44, i32 noundef 786690, ptr noundef null) #9
  br label %82

10:                                               ; preds = %7
  %11 = getelementptr inbounds nuw i8, ptr %0, i64 8
  %12 = load ptr, ptr %11, align 8, !tbaa !33
  %.not46 = icmp eq ptr %12, null
  br i1 %.not46, label %72, label %13

13:                                               ; preds = %10
  call void @llvm.lifetime.start.p0(i64 8, ptr nonnull %3) #9
  store ptr null, ptr %3, align 8, !tbaa !21
  %14 = getelementptr inbounds nuw i8, ptr %12, i64 160
  %15 = load ptr, ptr %14, align 8, !tbaa !18
  %16 = icmp eq ptr %15, null
  br i1 %16, label %.thread64, label %17

17:                                               ; preds = %13
  %18 = tail call ptr @OSSL_PARAM_BLD_new() #9
  %19 = icmp eq ptr %18, null
  br i1 %19, label %.thread64, label %20

20:                                               ; preds = %17
  %21 = load i32, ptr %1, align 8, !tbaa !47
  switch i32 %21, label %.thread [
    i32 1, label %22
    i32 2, label %31
    i32 3, label %46
    i32 4, label %57
  ]

22:                                               ; preds = %20
  %23 = getelementptr inbounds nuw i8, ptr %1, i64 8
  %24 = load ptr, ptr %23, align 8, !tbaa !52
  %25 = call i32 @i2d_X509_NAME(ptr noundef %24, ptr noundef nonnull %3) #9
  %26 = icmp sgt i32 %25, 0
  br i1 %26, label %27, label %.thread

27:                                               ; preds = %22
  %28 = load ptr, ptr %3, align 8, !tbaa !21
  %29 = zext nneg i32 %25 to i64
  %30 = call i32 @OSSL_PARAM_BLD_push_octet_string(ptr noundef nonnull %18, ptr noundef nonnull @.str.5, ptr noundef %28, i64 noundef %29) #9
  %.not53 = icmp eq i32 %30, 0
  br i1 %.not53, label %.thread, label %63

31:                                               ; preds = %20
  %32 = getelementptr inbounds nuw i8, ptr %1, i64 8
  %33 = load ptr, ptr %32, align 8, !tbaa !52
  %34 = call i32 @i2d_X509_NAME(ptr noundef %33, ptr noundef nonnull %3) #9
  %35 = icmp sgt i32 %34, 0
  br i1 %35, label %36, label %.thread

36:                                               ; preds = %31
  %37 = getelementptr inbounds nuw i8, ptr %1, i64 16
  %38 = load ptr, ptr %37, align 8, !tbaa !53
  %39 = call ptr @ASN1_INTEGER_to_BN(ptr noundef %38, ptr noundef null) #9
  %.not50 = icmp eq ptr %39, null
  br i1 %.not50, label %.thread, label %40

40:                                               ; preds = %36
  %41 = load ptr, ptr %3, align 8, !tbaa !21
  %42 = zext nneg i32 %34 to i64
  %43 = call i32 @OSSL_PARAM_BLD_push_octet_string(ptr noundef nonnull %18, ptr noundef nonnull @.str.6, ptr noundef %41, i64 noundef %42) #9
  %.not51 = icmp eq i32 %43, 0
  br i1 %.not51, label %.thread, label %44

44:                                               ; preds = %40
  %45 = call i32 @OSSL_PARAM_BLD_push_BN(ptr noundef nonnull %18, ptr noundef nonnull @.str.7, ptr noundef nonnull %39) #9
  %.not52 = icmp eq i32 %45, 0
  br i1 %.not52, label %.thread, label %63

46:                                               ; preds = %20
  %47 = getelementptr inbounds nuw i8, ptr %1, i64 24
  %48 = load ptr, ptr %47, align 8, !tbaa !54
  %49 = tail call ptr @EVP_MD_get0_name(ptr noundef %48) #9
  %50 = tail call i32 @OSSL_PARAM_BLD_push_utf8_string(ptr noundef nonnull %18, ptr noundef nonnull @.str.8, ptr noundef %49, i64 noundef 0) #9
  %.not48 = icmp eq i32 %50, 0
  br i1 %.not48, label %.thread, label %51

51:                                               ; preds = %46
  %52 = getelementptr inbounds nuw i8, ptr %1, i64 32
  %53 = load ptr, ptr %52, align 8, !tbaa !55
  %54 = getelementptr inbounds nuw i8, ptr %1, i64 40
  %55 = load i64, ptr %54, align 8, !tbaa !56
  %56 = tail call i32 @OSSL_PARAM_BLD_push_octet_string(ptr noundef nonnull %18, ptr noundef nonnull @.str.9, ptr noundef %53, i64 noundef %55) #9
  %.not49 = icmp eq i32 %56, 0
  br i1 %.not49, label %.thread, label %63

57:                                               ; preds = %20
  %58 = getelementptr inbounds nuw i8, ptr %1, i64 32
  %59 = load ptr, ptr %58, align 8, !tbaa !55
  %60 = getelementptr inbounds nuw i8, ptr %1, i64 40
  %61 = load i64, ptr %60, align 8, !tbaa !56
  %62 = tail call i32 @OSSL_PARAM_BLD_push_utf8_string(ptr noundef nonnull %18, ptr noundef nonnull @.str.10, ptr noundef %59, i64 noundef %61) #9
  %.not47 = icmp eq i32 %62, 0
  br i1 %.not47, label %.thread, label %63

63:                                               ; preds = %51, %44, %27, %57
  %.062 = phi ptr [ null, %27 ], [ null, %57 ], [ %39, %44 ], [ null, %51 ]
  %64 = call ptr @OSSL_PARAM_BLD_to_param(ptr noundef nonnull %18) #9
  %65 = load ptr, ptr %11, align 8, !tbaa !33
  %66 = getelementptr inbounds nuw i8, ptr %65, i64 160
  %67 = load ptr, ptr %66, align 8, !tbaa !18
  %68 = getelementptr inbounds nuw i8, ptr %0, i64 16
  %69 = load ptr, ptr %68, align 8, !tbaa !35
  %70 = call i32 %67(ptr noundef %69, ptr noundef %64) #9
  call void @OSSL_PARAM_free(ptr noundef %64) #9
  br label %.thread

.thread64:                                        ; preds = %17, %13
  %.sink67 = phi i32 [ 348, %13 ], [ 353, %17 ]
  %.sink = phi i32 [ 118, %13 ], [ 524303, %17 ]
  tail call void @ERR_new() #9
  tail call void @ERR_set_debug(ptr noundef nonnull @.str.2, i32 noundef %.sink67, ptr noundef nonnull @__func__.OSSL_STORE_find) #9
  tail call void (i32, i32, ptr, ...) @ERR_set_error(i32 noundef 44, i32 noundef %.sink, ptr noundef null) #9
  call void @llvm.lifetime.end.p0(i64 8, ptr nonnull %3) #9
  br label %82

.thread:                                          ; preds = %22, %31, %36, %40, %46, %20, %51, %44, %27, %63, %57
  %.061 = phi ptr [ %.062, %63 ], [ null, %57 ], [ null, %27 ], [ %39, %44 ], [ null, %51 ], [ null, %22 ], [ null, %31 ], [ null, %36 ], [ %39, %40 ], [ null, %46 ], [ null, %20 ]
  %.2 = phi i32 [ %70, %63 ], [ 0, %57 ], [ 0, %27 ], [ 0, %44 ], [ 0, %51 ], [ 0, %22 ], [ 0, %31 ], [ 0, %36 ], [ 0, %40 ], [ 0, %46 ], [ 0, %20 ]
  call void @OSSL_PARAM_BLD_free(ptr noundef nonnull %18) #9
  %71 = load ptr, ptr %3, align 8, !tbaa !21
  call void @CRYPTO_free(ptr noundef %71, ptr noundef nonnull @.str.2, i32 noundef 403) #9
  call void @BN_free(ptr noundef %.061) #9
  call void @llvm.lifetime.end.p0(i64 8, ptr nonnull %3) #9
  br label %82

72:                                               ; preds = %10
  %73 = load ptr, ptr %0, align 8, !tbaa !34
  %74 = getelementptr inbounds nuw i8, ptr %73, i64 48
  %75 = load ptr, ptr %74, align 8, !tbaa !57
  %76 = icmp eq ptr %75, null
  br i1 %76, label %77, label %78

77:                                               ; preds = %72
  tail call void @ERR_new() #9
  tail call void @ERR_set_debug(ptr noundef nonnull @.str.2, i32 noundef 409, ptr noundef nonnull @__func__.OSSL_STORE_find) #9
  tail call void (i32, i32, ptr, ...) @ERR_set_error(i32 noundef 44, i32 noundef 118, ptr noundef null) #9
  br label %82

78:                                               ; preds = %72
  %79 = getelementptr inbounds nuw i8, ptr %0, i64 16
  %80 = load ptr, ptr %79, align 8, !tbaa !35
  %81 = tail call i32 %75(ptr noundef %80, ptr noundef nonnull %1) #9
  br label %82

82:                                               ; preds = %.thread, %.thread64, %78, %77, %9, %6
  %.036 = phi i32 [ 0, %6 ], [ 0, %9 ], [ 0, %77 ], [ %81, %78 ], [ %.2, %.thread ], [ 0, %.thread64 ]
  ret i32 %.036
}